target datalayout = "e-m:e-p270:32:32-p271:32:32-p272:64:64-i64:64-i128:128-f80:128-n8:16:32:64-S128"
target triple = "x86_64-pc-linux-gnu"

%struct.RComplex = type { %struct.RBasic, i64, i64 }
%struct.RBasic = type { i64, i64 }

@.str.65 = private unnamed_addr constant [13 x i8] c"../complex.c\00", align 1
@ruby_current_ec = external thread_local global ptr, align 8

; Function Attrs: inlinehint nounwind sspstrong willreturn memory(none) uwtable
define internal zeroext i1 @RB_IMMEDIATE_P(i64 noundef %0) #8 {
  %2 = alloca i64, align 8
  store i64 %0, ptr %2, align 8, !tbaa !13
  %3 = load i64, ptr %2, align 8, !tbaa !13
  %4 = and i64 %3, 7
  %5 = icmp ne i64 %4, 0
  ret i1 %5
}

; Function Attrs: inlinehint nounwind sspstrong willreturn memory(none) uwtable
define internal zeroext i1 @RB_SPECIAL_CONST_P(i64 noundef %0) #8 {
  %2 = alloca i64, align 8
  store i64 %0, ptr %2, align 8, !tbaa !13
  %3 = load i64, ptr %2, align 8, !tbaa !13
  %4 = icmp eq i64 %3, 0
  br i1 %4, label %8, label %5

5:                                                ; preds = %1
  %6 = load i64, ptr %2, align 8, !tbaa !13
  %7 = call zeroext i1 @RB_IMMEDIATE_P(i64 noundef %6) #25
  br label %8

8:                                                ; preds = %5, %1
  %9 = phi i1 [ true, %1 ], [ %7, %5 ]
  ret i1 %9
}

; Function Attrs: inlinehint nounwind sspstrong uwtable
define internal i64 @rb_obj_written(i64 noundef %0, i64 noundef %1, i64 noundef %2, ptr noundef %3, i32 noundef %4) #3 {
  %6 = alloca i64, align 8
  %7 = alloca i64, align 8
  %8 = alloca i64, align 8
  %9 = alloca ptr, align 8
  %10 = alloca i32, align 4
  store i64 %0, ptr %6, align 8, !tbaa !13
  store i64 %1, ptr %7, align 8, !tbaa !13
  store i64 %2, ptr %8, align 8, !tbaa !13
  store ptr %3, ptr %9, align 8, !tbaa !42
  store i32 %4, ptr %10, align 4, !tbaa !11
  %11 = load i64, ptr %8, align 8, !tbaa !13
  %12 = call zeroext i1 @RB_SPECIAL_CONST_P(i64 noundef %11) #25
  br i1 %12, label %16, label %13

13:                                               ; preds = %5
  %14 = load i64, ptr %6, align 8, !tbaa !13
  %15 = load i64, ptr %8, align 8, !tbaa !13
  call void @rb_gc_writebarrier(i64 noundef %14, i64 noundef %15)
  br label %16

16:                                               ; preds = %13, %5
  %17 = load i64, ptr %6, align 8, !tbaa !13
  ret i64 %17
}

; Function Attrs: inlinehint nounwind sspstrong uwtable
define internal i64 @rb_obj_write(i64 noundef %0, ptr noundef %1, i64 noundef %2, ptr noundef %3, i32 noundef %4) #3 {
  %6 = alloca i64, align 8
  %7 = alloca ptr, align 8
  %8 = alloca i64, align 8
  %9 = alloca ptr, align 8
  %10 = alloca i32, align 4
  store i64 %0, ptr %6, align 8, !tbaa !13
  store ptr %1, ptr %7, align 8, !tbaa !23
  store i64 %2, ptr %8, align 8, !tbaa !13
  store ptr %3, ptr %9, align 8, !tbaa !42
  store i32 %4, ptr %10, align 4, !tbaa !11
  %11 = load i64, ptr %8, align 8, !tbaa !13
  %12 = load ptr, ptr %7, align 8, !tbaa !23
  store i64 %11, ptr %12, align 8, !tbaa !13
  %13 = load i64, ptr %6, align 8, !tbaa !13
  %14 = load i64, ptr %8, align 8, !tbaa !13
  %15 = load ptr, ptr %9, align 8, !tbaa !42
  %16 = load i32, ptr %10, align 4, !tbaa !11
  %17 = call i64 @rb_obj_written(i64 noundef %13, i64 noundef 36, i64 noundef %14, ptr noundef %15, i32 noundef %16)
  %18 = load i64, ptr %6, align 8, !tbaa !13
  ret i64 %18
}

; Function Attrs: inlinehint nounwind sspstrong uwtable
define internal ptr @rb_current_execution_context(i1 noundef zeroext %0) #3 {
  %2 = alloca i8, align 1
  %3 = alloca ptr, align 8
  %4 = zext i1 %0 to i8
  store i8 %4, ptr %2, align 1, !tbaa !25
  call void @llvm.lifetime.start.p0(i64 8, ptr %3) #23
  %5 = call align 8 ptr @llvm.threadlocal.address.p0(ptr align 8 @ruby_current_ec)
  %6 = load ptr, ptr %5, align 8, !tbaa !48
  store ptr %6, ptr %3, align 8, !tbaa !48
  %7 = load ptr, ptr %3, align 8, !tbaa !48
  call void @llvm.lifetime.end.p0(i64 8, ptr %3) #23
  ret ptr %7
}

; Function Attrs: inlinehint nounwind sspstrong uwtable
define internal i64 @nucomp_s_new_internal(i64 noundef %0, i64 noundef %1, i64 noundef %2) #3 {
  %4 = alloca i64, align 8
  %5 = alloca i64, align 8
  %6 = alloca i64, align 8
  %7 = alloca ptr, align 8
  store i64 %0, ptr %4, align 8, !tbaa !13
  store i64 %1, ptr %5, align 8, !tbaa !13
  store i64 %2, ptr %6, align 8, !tbaa !13
  call void @llvm.lifetime.start.p0(i64 8, ptr %7) #23
  %8 = call ptr @rb_current_execution_context(i1 noundef zeroext true)
  %9 = load i64, ptr %4, align 8, !tbaa !13
  %10 = call i64 @rb_wb_protected_newobj_of(ptr noundef %8, i64 noundef %9, i64 noundef 14, i64 noundef 32)
  %11 = inttoptr i64 %10 to ptr
  store ptr %11, ptr %7, align 8, !tbaa !16
  %12 = load ptr, ptr %7, align 8, !tbaa !16
  %13 = ptrtoint ptr %12 to i64
  %14 = load ptr, ptr %7, align 8, !tbaa !16
  %15 = getelementptr inbounds nuw %struct.RComplex, ptr %14, i32 0, i32 1
  %16 = load i64, ptr %5, align 8, !tbaa !13
  %17 = call i64 @rb_obj_write(i64 noundef %13, ptr noundef %15, i64 noundef %16, ptr noundef @.str.65, i32 noundef 398)
  %18 = load ptr, ptr %7, align 8, !tbaa !16
  %19 = ptrtoint ptr %18 to i64
  %20 = load ptr, ptr %7, align 8, !tbaa !16
  %21 = getelementptr inbounds nuw %struct.RComplex, ptr %20, i32 0, i32 2
  %22 = load i64, ptr %6, align 8, !tbaa !13
  %23 = call i64 @rb_obj_write(i64 noundef %19, ptr noundef %21, i64 noundef %22, ptr noundef @.str.65, i32 noundef 399)
  %24 = load ptr, ptr %7, align 8, !tbaa !16
  %25 = ptrtoint ptr %24 to i64
  call void @rb_obj_freeze_inline(i64 noundef %25)
  %26 = load ptr, ptr %7, align 8, !tbaa !16
  %27 = ptrtoint ptr %26 to i64
  call void @llvm.lifetime.end.p0(i64 8, ptr %7) #23
  ret i64 %27
}

; Function Attrs: nounwind sspstrong uwtable
define internal i64 @nucomp_s_alloc(i64 noundef %0) #0 {
  %2 = alloca i64, align 8
  store i64 %0, ptr %2, align 8, !tbaa !13
  %3 = load i64, ptr %2, align 8, !tbaa !13
  %4 = call i64 @nucomp_s_new_internal(i64 noundef %3, i64 noundef 1, i64 noundef 1)
  ret i64 %4
}