; Function Attrs: nounwind sspstrong uwtable
define internal noundef i64 @nucomp_s_alloc(i64 noundef %0) #0 {
  %2 = tail call align 8 ptr @llvm.threadlocal.address.p0(ptr align 8 @ruby_current_ec)
  %3 = load ptr, ptr %2, align 8, !tbaa !27
  %4 = tail call i64 @rb_wb_protected_newobj_of(ptr noundef %3, i64 noundef %0, i64 noundef 14, i64 noundef 32) #17
  %5 = inttoptr i64 %4 to ptr
  %6 = getelementptr inbounds nuw i8, ptr %5, i64 16
  store i64 1, ptr %6, align 8, !tbaa !11
  %7 = getelementptr inbounds nuw i8, ptr %5, i64 24
  store i64 1, ptr %7, align 8, !tbaa !11
  tail call void @rb_obj_freeze_inline(i64 noundef %4) #17
  ret i64 %4
}